target datalayout = "e-m:e-p270:32:32-p271:32:32-p272:64:64-i64:64-i128:128-f80:128-n8:16:32:64-S128"
target triple = "x86_64-pc-linux-gnu"

%"struct.google::protobuf::internal::ArrayOutput" = type { ptr, i8 }

; Function Attrs: mustprogress uwtable
define void @_ZN6google8protobuf8internal24SerializeMessageDispatchERKNS0_11MessageLiteEPKNS1_13FieldMetadataEiiPNS1_11ArrayOutputE(ptr noundef nonnull align 8 dereferenceable(16) %0, ptr noundef %1, i32 noundef %2, i32 noundef %3, ptr noundef %4) #5 {
  %6 = alloca ptr, align 8
  %7 = alloca ptr, align 8
  %8 = alloca i32, align 4
  %9 = alloca i32, align 4
  %10 = alloca ptr, align 8
  %11 = alloca ptr, align 8
  store ptr %0, ptr %6, align 8, !tbaa !15
  store ptr %1, ptr %7, align 8, !tbaa !34
  store i32 %2, ptr %8, align 4, !tbaa !36
  store i32 %3, ptr %9, align 4, !tbaa !36
  store ptr %4, ptr %10, align 8, !tbaa !19
  call void @llvm.lifetime.start.p0(i64 8, ptr %11) #3
  %12 = load ptr, ptr %6, align 8, !tbaa !15
  store ptr %12, ptr %11, align 8, !tbaa !38
  %13 = load ptr, ptr %11, align 8, !tbaa !38
  %14 = load ptr, ptr %7, align 8, !tbaa !34
  %15 = load i32, ptr %8, align 4, !tbaa !36
  %16 = load ptr, ptr %10, align 8, !tbaa !19
  %17 = getelementptr inbounds nuw %"struct.google::protobuf::internal::ArrayOutput", ptr %16, i32 0, i32 1
  %18 = load i8, ptr %17, align 8, !tbaa !24, !range !25, !noundef !26
  %19 = trunc i8 %18 to i1
  %20 = load ptr, ptr %10, align 8, !tbaa !19
  %21 = getelementptr inbounds nuw %"struct.google::protobuf::internal::ArrayOutput", ptr %20, i32 0, i32 0
  %22 = load ptr, ptr %21, align 8, !tbaa !21
  %23 = call noundef ptr @_ZN6google8protobuf8internal24SerializeInternalToArrayEPKhPKNS1_13FieldMetadataEibPh(ptr noundef %13, ptr noundef %14, i32 noundef %15, i1 noundef zeroext %19, ptr noundef %22)
  %24 = load ptr, ptr %10, align 8, !tbaa !19
  %25 = getelementptr inbounds nuw %"struct.google::protobuf::internal::ArrayOutput", ptr %24, i32 0, i32 0
  store ptr %23, ptr %25, align 8, !tbaa !21
  call void @llvm.lifetime.end.p0(i64 8, ptr %11) #3
  ret void
}